#include <math.h>
#include <stdio.h>
#include <stdlib.h>
#include <string.h>

int main()
{
	int a,b,c,i;
	scanf("%d",&a);
	if(a!=1){
	for(i=0;i<1000;i++){
	 if(a%2==0){
	    b=a/2;
	    printf("%d/2=%d\n",a,b);
	    a=b;
	 }
	 else{
	    c=a*3+1;
	    printf("%d*3+1=%d\n",a,c);
	    a=c;
	 }
	if(a==1)
		break;
	else
		continue;
	}
	    printf("End");
	}
	else
		printf("End");
	return 0;
}
