; ModuleID = '34/247.c'
source_filename = "34/247.c"
target datalayout = "e-m:e-p270:32:32-p271:32:32-p272:64:64-i64:64-f80:128-n8:16:32:64-S128"
target triple = "x86_64-pc-linux-gnu"

@.str = private unnamed_addr constant [3 x i8] c"%d\00", align 1
@.str.1 = private unnamed_addr constant [9 x i8] c"%d/2=%d\0A\00", align 1
@.str.2 = private unnamed_addr constant [11 x i8] c"%d*3+1=%d\0A\00", align 1
@.str.3 = private unnamed_addr constant [4 x i8] c"End\00", align 1

; Function Attrs: noinline nounwind uwtable
define dso_local i32 @main() #0 {
  %1 = alloca i32, align 4
  %2 = alloca i32, align 4
  %3 = alloca i32, align 4
  %4 = alloca i32, align 4
  %5 = alloca i32, align 4
  store i32 0, i32* %1, align 4
  %6 = call i32 (i8*, ...) @__isoc99_scanf(i8* getelementptr inbounds ([3 x i8], [3 x i8]* @.str, i64 0, i64 0), i32* %2)
  %7 = load i32, i32* %2, align 4
  %8 = icmp ne i32 %7, 1
  br i1 %8, label %9, label %42

9:                                                ; preds = %0
  store i32 0, i32* %5, align 4
  br label %10

10:                                               ; preds = %37, %9
  %11 = load i32, i32* %5, align 4
  %12 = icmp slt i32 %11, 1000
  br i1 %12, label %13, label %40

13:                                               ; preds = %10
  %14 = load i32, i32* %2, align 4
  %15 = srem i32 %14, 2
  %16 = icmp eq i32 %15, 0
  br i1 %16, label %17, label %24

17:                                               ; preds = %13
  %18 = load i32, i32* %2, align 4
  %19 = sdiv i32 %18, 2
  store i32 %19, i32* %3, align 4
  %20 = load i32, i32* %2, align 4
  %21 = load i32, i32* %3, align 4
  %22 = call i32 (i8*, ...) @printf(i8* getelementptr inbounds ([9 x i8], [9 x i8]* @.str.1, i64 0, i64 0), i32 %20, i32 %21)
  %23 = load i32, i32* %3, align 4
  store i32 %23, i32* %2, align 4
  br label %32

24:                                               ; preds = %13
  %25 = load i32, i32* %2, align 4
  %26 = mul nsw i32 %25, 3
  %27 = add nsw i32 %26, 1
  store i32 %27, i32* %4, align 4
  %28 = load i32, i32* %2, align 4
  %29 = load i32, i32* %4, align 4
  %30 = call i32 (i8*, ...) @printf(i8* getelementptr inbounds ([11 x i8], [11 x i8]* @.str.2, i64 0, i64 0), i32 %28, i32 %29)
  %31 = load i32, i32* %4, align 4
  store i32 %31, i32* %2, align 4
  br label %32

32:                                               ; preds = %24, %17
  %33 = load i32, i32* %2, align 4
  %34 = icmp eq i32 %33, 1
  br i1 %34, label %35, label %36

35:                                               ; preds = %32
  br label %40

36:                                               ; preds = %32
  br label %37

37:                                               ; preds = %36
  %38 = load i32, i32* %5, align 4
  %39 = add nsw i32 %38, 1
  store i32 %39, i32* %5, align 4
  br label %10

40:                                               ; preds = %35, %10
  %41 = call i32 (i8*, ...) @printf(i8* getelementptr inbounds ([4 x i8], [4 x i8]* @.str.3, i64 0, i64 0))
  br label %44

42:                                               ; preds = %0
  %43 = call i32 (i8*, ...) @printf(i8* getelementptr inbounds ([4 x i8], [4 x i8]* @.str.3, i64 0, i64 0))
  br label %44

44:                                               ; preds = %42, %40
  ret i32 0
}

declare dso_local i32 @__isoc99_scanf(i8*, ...) #1

declare dso_local i32 @printf(i8*, ...) #1


!llvm.module.flags = !{!0}
!llvm.ident = !{!1}

!0 = !{i32 1, !"wchar_size", i32 4}
!1 = !{!"clang version 10.0.0-4ubuntu1 "}
